; Function Attrs: mustprogress uwtable
define void @_ZNK17TrafficTypesModel10headerDataEiN2Qt11OrientationEi(ptr dead_on_unwind noalias writable sret(%class.QVariant) align 8 %0, ptr nocapture noundef nonnull readnone align 8 dereferenceable(56) %1, i32 noundef %2, i32 noundef %3, i32 noundef %4) unnamed_addr #3 align 2 personality ptr @__gxx_personality_v0 {
  %6 = alloca %class.QString, align 8
  %7 = icmp slt i32 %2, 0
  %8 = icmp ne i32 %4, 0
  %or.cond = or i1 %7, %8
  %9 = icmp ne i32 %3, 1
  %or.cond3 = or i1 %9, %or.cond
  br i1 %or.cond3, label %10, label %12

10:                                               ; preds = %5
  tail call void @llvm.memset.p0.i64(ptr noundef nonnull align 8 dereferenceable(24) %0, i8 0, i64 24, i1 false)
  %11 = getelementptr inbounds i8, ptr %0, i64 24
  store i64 2, ptr %11, align 8
  br label %_ZN7QStringD2Ev.exit

12:                                               ; preds = %5
  %13 = icmp eq i32 %2, 1
  br i1 %13, label %14, label %26

14:                                               ; preds = %12
  call void @_ZNK11QMetaObject2trEPKcS1_i(ptr dead_on_unwind nonnull writable sret(%class.QString) align 8 %6, ptr noundef nonnull align 8 dereferenceable(56) @_ZN17TrafficTypesModel16staticMetaObjectE, ptr noundef nonnull @.str.5, ptr noundef null, i32 noundef -1)
  invoke void @_ZN8QVariantC1ERK7QString(ptr noundef nonnull align 8 dereferenceable(32) %0, ptr noundef nonnull align 8 dereferenceable(24) %6)
          to label %15 unwind label %20

15:                                               ; preds = %14
  %16 = load ptr, ptr %6, align 8
  %.not.i.i.i = icmp eq ptr %16, null
  br i1 %.not.i.i.i, label %_ZN7QStringD2Ev.exit, label %_ZN17QArrayDataPointerIDsE5derefEv.exit.i.i

_ZN17QArrayDataPointerIDsE5derefEv.exit.i.i:      ; preds = %15
  %17 = atomicrmw sub ptr %16, i32 1 seq_cst, align 4
  %.not.i.i = icmp eq i32 %17, 1
  br i1 %.not.i.i, label %18, label %_ZN7QStringD2Ev.exit

18:                                               ; preds = %_ZN17QArrayDataPointerIDsE5derefEv.exit.i.i
  %19 = load ptr, ptr %6, align 8
  call void @_ZN10QArrayData10deallocateEPS_xx(ptr noundef %19, i64 noundef 2, i64 noundef 8) #19
  br label %_ZN7QStringD2Ev.exit

20:                                               ; preds = %14
  %21 = landingpad { ptr, i32 }
          cleanup
  %22 = load ptr, ptr %6, align 8
  %.not.i.i.i8 = icmp eq ptr %22, null
  br i1 %.not.i.i.i8, label %_ZN7QStringD2Ev.exit11, label %_ZN17QArrayDataPointerIDsE5derefEv.exit.i.i9

_ZN17QArrayDataPointerIDsE5derefEv.exit.i.i9:     ; preds = %20
  %23 = atomicrmw sub ptr %22, i32 1 seq_cst, align 4
  %.not.i.i10 = icmp eq i32 %23, 1
  br i1 %.not.i.i10, label %24, label %_ZN7QStringD2Ev.exit11

24:                                               ; preds = %_ZN17QArrayDataPointerIDsE5derefEv.exit.i.i9
  %25 = load ptr, ptr %6, align 8
  call void @_ZN10QArrayData10deallocateEPS_xx(ptr noundef %25, i64 noundef 2, i64 noundef 8) #19
  br label %_ZN7QStringD2Ev.exit11

_ZN7QStringD2Ev.exit11:                           ; preds = %20, %_ZN17QArrayDataPointerIDsE5derefEv.exit.i.i9, %24
  resume { ptr, i32 } %21

26:                                               ; preds = %12
  tail call void @llvm.memset.p0.i64(ptr noundef nonnull align 8 dereferenceable(24) %0, i8 0, i64 24, i1 false)
  %27 = getelementptr inbounds i8, ptr %0, i64 24
  store i64 2, ptr %27, align 8
  br label %_ZN7QStringD2Ev.exit

_ZN7QStringD2Ev.exit:                             ; preds = %18, %_ZN17QArrayDataPointerIDsE5derefEv.exit.i.i, %15, %26, %10
  ret void
}